target datalayout = "e-m:e-p270:32:32-p271:32:32-p272:64:64-i64:64-i128:128-f80:128-n8:16:32:64-S128"
target triple = "x86_64-pc-linux-gnu"

%struct.AVFormatContext = type { ptr, ptr, ptr, ptr, ptr, i32, i32, ptr, i32, ptr, i32, ptr, ptr, i64, i64, i64, i32, i32, i32, i64, i64, ptr, i32, i32, ptr, i32, i32, i32, i32, ptr, i64, i32, i32, %struct.AVIOInterruptCB, i32, i32, i32, i32, i64, i32, i32, i32, i32, i32, i32, i32, i32, i32, i32, i32, i32, i64, i32, i32, i32, i32, i32, ptr, ptr, ptr, ptr, i32, ptr, ptr, ptr, ptr, i32, ptr, ptr, i64, ptr, ptr, ptr, i64 }
%struct.AVIOInterruptCB = type { ptr, ptr }
%struct.MOVMuxContext = type { ptr, i32, i64, i32, i32, i32, i32, i64, i64, ptr, i32, i32, i32, i32, i32, i32, i32, i32, i32, i32, i32, ptr, i32, i32, i32, i64, ptr, i32, ptr, ptr, i32, float, i32, i32, ptr, i32, ptr, i32, ptr, i32, i32, i32, i32, i32, i32, i32, i32, i32, [2 x i64], [2 x i32], i32, i32 }
%struct.MOVTrack = type { i32, i32, i32, i32, i64, i64, i32, i64, i64, i64, i32, i32, i32, i32, i32, i32, i32, ptr, ptr, i32, i32, i32, ptr, ptr, ptr, i32, i32, i32, i32, i32, i64, i64, i64, i32, i64, i32, i32, ptr, i32, i64, i32, i64, i32, i32, %struct.HintSampleQueue, ptr, ptr, i64, i32, i32, i32, ptr, i32, %struct.anon, ptr, %struct.MOVMuxCencContext, [256 x i32], i32, i32, i32, %struct.PacketList, ptr, i32, i32, ptr }
%struct.HintSampleQueue = type { i32, i32, ptr }
%struct.anon = type { i32, i32, i32, i32, i32, i32, i32 }
%struct.MOVMuxCencContext = type { ptr, ptr, i64, i64, i32, i32, i16, i64, ptr, i64, ptr, i32, i32, ptr, %struct.CodedBitstreamFragment }
%struct.CodedBitstreamFragment = type { ptr, i64, i64, ptr, i32, i32, ptr }
%struct.PacketList = type { ptr, ptr }
%struct.AVCodecParameters = type { i32, i32, i32, ptr, i32, ptr, i32, i32, i64, i32, i32, i32, i32, i32, i32, %struct.AVRational, %struct.AVRational, i32, i32, i32, i32, i32, i32, i32, %struct.AVChannelLayout, i32, i32, i32, i32, i32, i32 }
%struct.AVRational = type { i32, i32 }
%struct.AVChannelLayout = type { i32, i32, %union.anon, ptr }
%union.anon = type { i64 }
%struct.AVStream = type { ptr, i32, i32, ptr, ptr, %struct.AVRational, i64, i64, i64, i32, i32, %struct.AVRational, ptr, %struct.AVRational, %struct.AVPacket, i32, %struct.AVRational, i32 }
%struct.AVPacket = type { ptr, i64, i64, ptr, i32, i32, i32, ptr, i32, i64, i64, ptr, ptr, %struct.AVRational }

@.str = private unnamed_addr constant [43 x i8] c"Unable to initialize hinting of stream %d\0A\00", align 1

; Function Attrs: nounwind uwtable
define i32 @ff_mov_init_hinting(ptr noundef %0, i32 noundef %1, i32 noundef %2) #0 {
  %4 = alloca i32, align 4
  %5 = alloca ptr, align 8
  %6 = alloca i32, align 4
  %7 = alloca i32, align 4
  %8 = alloca ptr, align 8
  %9 = alloca ptr, align 8
  %10 = alloca ptr, align 8
  %11 = alloca ptr, align 8
  %12 = alloca i32, align 4
  %13 = alloca i32, align 4
  store ptr %0, ptr %5, align 8, !tbaa !4
  store i32 %1, ptr %6, align 4, !tbaa !9
  store i32 %2, ptr %7, align 4, !tbaa !9
  call void @llvm.lifetime.start.p0(i64 8, ptr %8) #6
  %14 = load ptr, ptr %5, align 8, !tbaa !4
  %15 = getelementptr inbounds nuw %struct.AVFormatContext, ptr %14, i32 0, i32 3
  %16 = load ptr, ptr %15, align 8, !tbaa !11
  store ptr %16, ptr %8, align 8, !tbaa !27
  call void @llvm.lifetime.start.p0(i64 8, ptr %9) #6
  %17 = load ptr, ptr %8, align 8, !tbaa !27
  %18 = getelementptr inbounds nuw %struct.MOVMuxContext, ptr %17, i32 0, i32 9
  %19 = load ptr, ptr %18, align 8, !tbaa !29
  %20 = load i32, ptr %6, align 4, !tbaa !9
  %21 = sext i32 %20 to i64
  %22 = getelementptr inbounds %struct.MOVTrack, ptr %19, i64 %21
  store ptr %22, ptr %9, align 8, !tbaa !34
  call void @llvm.lifetime.start.p0(i64 8, ptr %10) #6
  %23 = load ptr, ptr %8, align 8, !tbaa !27
  %24 = getelementptr inbounds nuw %struct.MOVMuxContext, ptr %23, i32 0, i32 9
  %25 = load ptr, ptr %24, align 8, !tbaa !29
  %26 = load i32, ptr %7, align 4, !tbaa !9
  %27 = sext i32 %26 to i64
  %28 = getelementptr inbounds %struct.MOVTrack, ptr %25, i64 %27
  store ptr %28, ptr %10, align 8, !tbaa !34
  call void @llvm.lifetime.start.p0(i64 8, ptr %11) #6
  %29 = load ptr, ptr %5, align 8, !tbaa !4
  %30 = getelementptr inbounds nuw %struct.AVFormatContext, ptr %29, i32 0, i32 7
  %31 = load ptr, ptr %30, align 8, !tbaa !35
  %32 = load i32, ptr %7, align 4, !tbaa !9
  %33 = sext i32 %32 to i64
  %34 = getelementptr inbounds ptr, ptr %31, i64 %33
  %35 = load ptr, ptr %34, align 8, !tbaa !36
  store ptr %35, ptr %11, align 8, !tbaa !36
  call void @llvm.lifetime.start.p0(i64 4, ptr %12) #6
  store i32 -12, ptr %12, align 4, !tbaa !9
  %36 = load ptr, ptr %9, align 8, !tbaa !34
  %37 = getelementptr inbounds nuw %struct.MOVTrack, ptr %36, i32 0, i32 16
  store i32 544240754, ptr %37, align 8, !tbaa !38
  %38 = load i32, ptr %7, align 4, !tbaa !9
  %39 = load ptr, ptr %9, align 8, !tbaa !34
  %40 = getelementptr inbounds nuw %struct.MOVTrack, ptr %39, i32 0, i32 36
  store i32 %38, ptr %40, align 4, !tbaa !57
  %41 = call ptr @avcodec_parameters_alloc()
  %42 = load ptr, ptr %9, align 8, !tbaa !34
  %43 = getelementptr inbounds nuw %struct.MOVTrack, ptr %42, i32 0, i32 18
  store ptr %41, ptr %43, align 8, !tbaa !58
  %44 = load ptr, ptr %9, align 8, !tbaa !34
  %45 = getelementptr inbounds nuw %struct.MOVTrack, ptr %44, i32 0, i32 18
  %46 = load ptr, ptr %45, align 8, !tbaa !58
  %47 = icmp ne ptr %46, null
  br i1 %47, label %49, label %48

48:                                               ; preds = %3
  br label %86

49:                                               ; preds = %3
  %50 = load ptr, ptr %9, align 8, !tbaa !34
  %51 = getelementptr inbounds nuw %struct.MOVTrack, ptr %50, i32 0, i32 18
  %52 = load ptr, ptr %51, align 8, !tbaa !58
  %53 = getelementptr inbounds nuw %struct.AVCodecParameters, ptr %52, i32 0, i32 0
  store i32 2, ptr %53, align 8, !tbaa !59
  %54 = load ptr, ptr %9, align 8, !tbaa !34
  %55 = getelementptr inbounds nuw %struct.MOVTrack, ptr %54, i32 0, i32 16
  %56 = load i32, ptr %55, align 8, !tbaa !38
  %57 = load ptr, ptr %9, align 8, !tbaa !34
  %58 = getelementptr inbounds nuw %struct.MOVTrack, ptr %57, i32 0, i32 18
  %59 = load ptr, ptr %58, align 8, !tbaa !58
  %60 = getelementptr inbounds nuw %struct.AVCodecParameters, ptr %59, i32 0, i32 2
  store i32 %56, ptr %60, align 8, !tbaa !64
  %61 = load ptr, ptr %9, align 8, !tbaa !34
  %62 = getelementptr inbounds nuw %struct.MOVTrack, ptr %61, i32 0, i32 37
  %63 = load ptr, ptr %5, align 8, !tbaa !4
  %64 = load ptr, ptr %11, align 8, !tbaa !36
  %65 = load i32, ptr %7, align 4, !tbaa !9
  %66 = call i32 @ff_rtp_chain_mux_open(ptr noundef %62, ptr noundef %63, ptr noundef %64, ptr noundef null, i32 noundef 1450, i32 noundef %65)
  store i32 %66, ptr %12, align 4, !tbaa !9
  %67 = load i32, ptr %12, align 4, !tbaa !9
  %68 = icmp slt i32 %67, 0
  br i1 %68, label %69, label %70

69:                                               ; preds = %49
  br label %86

70:                                               ; preds = %49
  %71 = load ptr, ptr %9, align 8, !tbaa !34
  %72 = getelementptr inbounds nuw %struct.MOVTrack, ptr %71, i32 0, i32 37
  %73 = load ptr, ptr %72, align 8, !tbaa !65
  %74 = getelementptr inbounds nuw %struct.AVFormatContext, ptr %73, i32 0, i32 7
  %75 = load ptr, ptr %74, align 8, !tbaa !35
  %76 = getelementptr inbounds ptr, ptr %75, i64 0
  %77 = load ptr, ptr %76, align 8, !tbaa !36
  %78 = getelementptr inbounds nuw %struct.AVStream, ptr %77, i32 0, i32 5
  %79 = getelementptr inbounds nuw %struct.AVRational, ptr %78, i32 0, i32 1
  %80 = load i32, ptr %79, align 4, !tbaa !66
  %81 = load ptr, ptr %9, align 8, !tbaa !34
  %82 = getelementptr inbounds nuw %struct.MOVTrack, ptr %81, i32 0, i32 3
  store i32 %80, ptr %82, align 4, !tbaa !69
  %83 = load i32, ptr %6, align 4, !tbaa !9
  %84 = load ptr, ptr %10, align 8, !tbaa !34
  %85 = getelementptr inbounds nuw %struct.MOVTrack, ptr %84, i32 0, i32 35
  store i32 %83, ptr %85, align 8, !tbaa !70
  store i32 0, ptr %4, align 4
  store i32 1, ptr %13, align 4
  br label %94

86:                                               ; preds = %69, %48
  %87 = load ptr, ptr %5, align 8, !tbaa !4
  %88 = load i32, ptr %7, align 4, !tbaa !9
  call void (ptr, i32, ptr, ...) @av_log(ptr noundef %87, i32 noundef 24, ptr noundef @.str, i32 noundef %88)
  %89 = load ptr, ptr %9, align 8, !tbaa !34
  %90 = getelementptr inbounds nuw %struct.MOVTrack, ptr %89, i32 0, i32 18
  call void @avcodec_parameters_free(ptr noundef %90)
  %91 = load ptr, ptr %9, align 8, !tbaa !34
  %92 = getelementptr inbounds nuw %struct.MOVTrack, ptr %91, i32 0, i32 3
  store i32 90000, ptr %92, align 4, !tbaa !69
  %93 = load i32, ptr %12, align 4, !tbaa !9
  store i32 %93, ptr %4, align 4
  store i32 1, ptr %13, align 4
  br label %94

94:                                               ; preds = %86, %70
  call void @llvm.lifetime.end.p0(i64 4, ptr %12) #6
  call void @llvm.lifetime.end.p0(i64 8, ptr %11) #6
  call void @llvm.lifetime.end.p0(i64 8, ptr %10) #6
  call void @llvm.lifetime.end.p0(i64 8, ptr %9) #6
  call void @llvm.lifetime.end.p0(i64 8, ptr %8) #6
  %95 = load i32, ptr %4, align 4
  ret i32 %95
}