; Function Attrs: nounwind uwtable
define range(i32 -2147483648, 1) i32 @ff_mov_init_hinting(ptr noundef %0, i32 noundef %1, i32 noundef %2) local_unnamed_addr #0 {
  %4 = getelementptr inbounds nuw i8, ptr %0, i64 24
  %5 = load ptr, ptr %4, align 8, !tbaa !4
  %6 = getelementptr inbounds nuw i8, ptr %5, i64 56
  %7 = load ptr, ptr %6, align 8, !tbaa !24
  %8 = sext i32 %1 to i64
  %9 = getelementptr inbounds %struct.MOVTrack, ptr %7, i64 %8
  %10 = sext i32 %2 to i64
  %11 = getelementptr inbounds nuw i8, ptr %0, i64 48
  %12 = load ptr, ptr %11, align 8, !tbaa !30
  %13 = getelementptr inbounds ptr, ptr %12, i64 %10
  %14 = load ptr, ptr %13, align 8, !tbaa !31
  %15 = getelementptr inbounds nuw i8, ptr %9, i64 88
  store i32 544240754, ptr %15, align 8, !tbaa !33
  %16 = getelementptr inbounds nuw i8, ptr %9, i64 220
  store i32 %2, ptr %16, align 4, !tbaa !52
  %17 = tail call ptr @avcodec_parameters_alloc() #5
  %18 = getelementptr inbounds nuw i8, ptr %9, i64 104
  store ptr %17, ptr %18, align 8, !tbaa !53
  %.not = icmp eq ptr %17, null
  br i1 %.not, label %34, label %19

19:                                               ; preds = %3
  store i32 2, ptr %17, align 8, !tbaa !54
  %20 = load i32, ptr %15, align 8, !tbaa !33
  %21 = getelementptr inbounds nuw i8, ptr %17, i64 8
  store i32 %20, ptr %21, align 8, !tbaa !59
  %22 = getelementptr inbounds nuw i8, ptr %9, i64 224
  %23 = tail call i32 @ff_rtp_chain_mux_open(ptr noundef nonnull %22, ptr noundef nonnull %0, ptr noundef %14, ptr noundef null, i32 noundef 1450, i32 noundef %2) #5
  %24 = icmp slt i32 %23, 0
  br i1 %24, label %34, label %25

25:                                               ; preds = %19
  %26 = load ptr, ptr %22, align 8, !tbaa !60
  %27 = getelementptr inbounds nuw i8, ptr %26, i64 48
  %28 = load ptr, ptr %27, align 8, !tbaa !30
  %29 = load ptr, ptr %28, align 8, !tbaa !31
  %30 = getelementptr inbounds nuw i8, ptr %29, i64 36
  %31 = load i32, ptr %30, align 4, !tbaa !61
  %32 = getelementptr inbounds nuw i8, ptr %9, i64 12
  store i32 %31, ptr %32, align 4, !tbaa !64
  %33 = getelementptr inbounds %struct.MOVTrack, ptr %7, i64 %10, i32 35
  store i32 %1, ptr %33, align 8, !tbaa !65
  br label %36

34:                                               ; preds = %19, %3
  %.0 = phi i32 [ %23, %19 ], [ -12, %3 ]
  tail call void (ptr, i32, ptr, ...) @av_log(ptr noundef nonnull %0, i32 noundef 24, ptr noundef nonnull @.str, i32 noundef %2) #5
  tail call void @avcodec_parameters_free(ptr noundef nonnull %18) #5
  %35 = getelementptr inbounds nuw i8, ptr %9, i64 12
  store i32 90000, ptr %35, align 4, !tbaa !64
  br label %36

36:                                               ; preds = %34, %25
  %.029 = phi i32 [ %.0, %34 ], [ 0, %25 ]
  ret i32 %.029
}